; Function Attrs: nounwind uwtable
define internal void @forward_DCT_float(ptr noundef readonly captures(none) %0, ptr noundef readonly captures(none) %1, ptr noundef %2, ptr noundef %3, i32 noundef %4, i32 noundef %5, i32 noundef %6) #0 {
  %8 = getelementptr inbounds nuw i8, ptr %0, i64 488
  %9 = load ptr, ptr %8, align 8, !tbaa !34
  %10 = getelementptr inbounds nuw i8, ptr %9, i64 112
  %11 = getelementptr inbounds nuw i8, ptr %1, i64 16
  %12 = load i32, ptr %11, align 8, !tbaa !53
  %13 = sext i32 %12 to i64
  %14 = getelementptr inbounds [4 x ptr], ptr %10, i64 0, i64 %13
  %15 = load ptr, ptr %14, align 8, !tbaa !50
  %16 = getelementptr inbounds nuw i8, ptr %9, i64 88
  %17 = load ptr, ptr %16, align 8, !tbaa !43
  %18 = getelementptr inbounds nuw i8, ptr %9, i64 96
  %19 = load ptr, ptr %18, align 8, !tbaa !46
  %20 = getelementptr inbounds nuw i8, ptr %9, i64 104
  %21 = load ptr, ptr %20, align 8, !tbaa !47
  %22 = getelementptr inbounds nuw i8, ptr %9, i64 144
  %23 = load ptr, ptr %22, align 8, !tbaa !67
  %24 = zext i32 %4 to i64
  %25 = getelementptr inbounds nuw ptr, ptr %2, i64 %24
  %.not = icmp eq i32 %6, 0
  br i1 %.not, label %._crit_edge, label %.lr.ph.preheader

.lr.ph.preheader:                                 ; preds = %7
  %wide.trip.count = zext i32 %6 to i64
  br label %.lr.ph

.lr.ph:                                           ; preds = %.lr.ph.preheader, %.lr.ph
  %indvars.iv = phi i64 [ 0, %.lr.ph.preheader ], [ %indvars.iv.next, %.lr.ph ]
  %.025 = phi i32 [ %5, %.lr.ph.preheader ], [ %27, %.lr.ph ]
  tail call void %19(ptr noundef %25, i32 noundef %.025, ptr noundef %23) #5
  tail call void %17(ptr noundef %23) #5
  %26 = getelementptr inbounds nuw [64 x i16], ptr %3, i64 %indvars.iv
  tail call void %21(ptr noundef %26, ptr noundef %15, ptr noundef %23) #5
  %indvars.iv.next = add nuw nsw i64 %indvars.iv, 1
  %27 = add i32 %.025, 8
  %exitcond.not = icmp eq i64 %indvars.iv.next, %wide.trip.count
  br i1 %exitcond.not, label %._crit_edge, label %.lr.ph, !llvm.loop !68

._crit_edge:                                      ; preds = %.lr.ph, %7
  ret void
}